; Function Attrs: nounwind uwtable
define internal range(i32 0, 2) i32 @test_validate_msg_unprotected_request() #0 {
  %1 = tail call fastcc ptr @set_up(ptr noundef nonnull @.str.58)
  %2 = icmp eq ptr %1, null
  br i1 %2, label %31, label %3

3:                                                ; preds = %0
  %4 = getelementptr inbounds nuw i8, ptr %1, i64 8
  store i32 0, ptr %4, align 8, !tbaa !24
  %5 = load ptr, ptr @ir_unprotected_f, align 8, !tbaa !23
  %6 = load ptr, ptr @libctx, align 8, !tbaa !13
  %7 = tail call ptr @load_pkimsg(ptr noundef %5, ptr noundef %6) #7
  %8 = getelementptr inbounds nuw i8, ptr %1, i64 24
  store ptr %7, ptr %8, align 8, !tbaa !27
  %9 = tail call i32 @test_ptr(ptr noundef nonnull @.str.14, i32 noundef 391, ptr noundef nonnull @.str.86, ptr noundef %7) #7
  %.not = icmp eq i32 %9, 0
  br i1 %.not, label %.thread, label %12

.thread:                                          ; preds = %3
  %10 = load ptr, ptr %8, align 8, !tbaa !27
  tail call void @OSSL_CMP_MSG_free(ptr noundef %10) #7
  %11 = getelementptr inbounds nuw i8, ptr %1, i64 16
  br label %.sink.split

12:                                               ; preds = %3
  %13 = load i32, ptr %4, align 8, !tbaa !24
  %14 = getelementptr inbounds nuw i8, ptr %1, i64 16
  %15 = load ptr, ptr %14, align 8, !tbaa !28
  %16 = load ptr, ptr %8, align 8, !tbaa !27
  %17 = tail call i32 @ossl_cmp_msg_check_update(ptr noundef %15, ptr noundef %16, ptr noundef null, i32 noundef 0) #7
  %18 = tail call i32 @test_int_eq(ptr noundef nonnull @.str.14, i32 noundef 139, ptr noundef nonnull @.str.75, ptr noundef nonnull @.str.78, i32 noundef %13, i32 noundef %17) #7
  %19 = load ptr, ptr %14, align 8, !tbaa !28
  %20 = tail call ptr @OSSL_CMP_CTX_get0_validatedSrvCert(ptr noundef %19) #7
  %.not.i = icmp eq i32 %18, 0
  br i1 %.not.i, label %execute_validate_msg_test.exit, label %21

21:                                               ; preds = %12
  %22 = load i32, ptr %4, align 8, !tbaa !24
  %.not7.i = icmp eq i32 %22, 0
  br i1 %.not7.i, label %execute_validate_msg_test.exit, label %23

23:                                               ; preds = %21
  %24 = getelementptr inbounds nuw i8, ptr %1, i64 32
  %25 = load ptr, ptr %24, align 8, !tbaa !29
  %26 = tail call i32 @test_ptr_eq(ptr noundef nonnull @.str.14, i32 noundef 142, ptr noundef nonnull @.str.79, ptr noundef nonnull @.str.80, ptr noundef %20, ptr noundef %25) #7
  %27 = icmp ne i32 %26, 0
  %28 = zext i1 %27 to i32
  br label %execute_validate_msg_test.exit

execute_validate_msg_test.exit:                   ; preds = %12, %21, %23
  %29 = phi i32 [ 0, %12 ], [ 1, %21 ], [ %28, %23 ]
  %30 = load ptr, ptr %8, align 8, !tbaa !27
  tail call void @OSSL_CMP_MSG_free(ptr noundef %30) #7
  br label %.sink.split

.sink.split:                                      ; preds = %execute_validate_msg_test.exit, %.thread
  %.sink.in = phi ptr [ %11, %.thread ], [ %14, %execute_validate_msg_test.exit ]
  %.09.ph = phi i32 [ 0, %.thread ], [ %29, %execute_validate_msg_test.exit ]
  %.sink = load ptr, ptr %.sink.in, align 8, !tbaa !28
  tail call void @OSSL_CMP_CTX_free(ptr noundef %.sink) #7
  tail call void @CRYPTO_free(ptr noundef nonnull %1, ptr noundef nonnull @.str.14, i32 noundef 47) #7
  br label %31

31:                                               ; preds = %.sink.split, %0
  %.09 = phi i32 [ 0, %0 ], [ %.09.ph, %.sink.split ]
  ret i32 %.09
}